; Function Attrs: mustprogress nounwind uwtable
define void @_ZN21grpc_alts_credentialsD2Ev(ptr nocapture noundef nonnull readonly align 8 dereferenceable(32) %this) unnamed_addr #4 align 2 personality ptr @__gxx_personality_v0 {
entry:
  %options_ = getelementptr inbounds i8, ptr %this, i64 16
  %0 = load ptr, ptr %options_, align 8
  invoke void @grpc_alts_credentials_options_destroy(ptr noundef %0)
          to label %invoke.cont unwind label %terminate.lpad

invoke.cont:                                      ; preds = %entry
  %handshaker_service_url_ = getelementptr inbounds i8, ptr %this, i64 24
  %1 = load ptr, ptr %handshaker_service_url_, align 8
  invoke void @gpr_free(ptr noundef %1)
          to label %invoke.cont2 unwind label %terminate.lpad

invoke.cont2:                                     ; preds = %invoke.cont
  ret void

terminate.lpad:                                   ; preds = %invoke.cont, %entry
  %2 = landingpad { ptr, i32 }
          catch ptr null
  %3 = extractvalue { ptr, i32 } %2, 0
  tail call void @__clang_call_terminate(ptr %3) #14
  unreachable
}